; Function Attrs: mustprogress nounwind uwtable
define dso_local noundef double @_ZNK9Stopwatch7ElapsedEv(ptr noundef nonnull readonly align 8 captures(none) dereferenceable(8) %0) local_unnamed_addr #0 align 2 {
  %2 = tail call noundef i64 @_ZNSt6chrono3_V212steady_clock3nowEv() #12
  %3 = load i64, ptr %0, align 8, !tbaa !34
  %4 = sub i64 %2, %3
  %5 = uitofp i64 %4 to double
  %6 = fdiv double %5, 1.000000e+03
  %7 = fptosi double %6 to i64
  %8 = sitofp i64 %7 to double
  %9 = fmul double %8, 0x3EB0C6F7A0B5ED8D
  ret double %9
}